target datalayout = "e-m:e-p270:32:32-p271:32:32-p272:64:64-i64:64-i128:128-f80:128-n8:16:32:64-S128"
target triple = "x86_64-unknown-linux-gnu"

%struct.winsize = type { i16, i16, i16, i16 }

; Function Attrs: nounwind sspstrong uwtable
define dso_local i32 @get_console_width() #0 {
entry:
  %width = alloca i32, align 4
  %w = alloca %struct.winsize, align 2
  store i32 0, ptr %width, align 4
  %call = call i32 (i32, i64, ...) @ioctl(i32 noundef 1, i64 noundef 21523, ptr noundef %w) #7
  %cmp = icmp ne i32 %call, -1
  br i1 %cmp, label %if.then, label %if.end

if.then:                                          ; preds = %entry
  %ws_col = getelementptr inbounds %struct.winsize, ptr %w, i32 0, i32 1
  %0 = load i16, ptr %ws_col, align 2
  %conv = zext i16 %0 to i32
  store i32 %conv, ptr %width, align 4
  br label %if.end

if.end:                                           ; preds = %if.then, %entry
  %1 = load i32, ptr %width, align 4
  %cmp1 = icmp sle i32 %1, 0
  br i1 %cmp1, label %if.then3, label %if.end4

if.then3:                                         ; preds = %if.end
  store i32 80, ptr %width, align 4
  br label %if.end4

if.end4:                                          ; preds = %if.then3, %if.end
  %2 = load i32, ptr %width, align 4
  ret i32 %2
}