; Function Attrs: nounwind sspstrong uwtable
define dso_local range(i32 0, 65536) i32 @get_console_width() local_unnamed_addr #2 {
entry:
  %w = alloca %struct.winsize, align 2
  %call = call i32 (i32, i64, ...) @ioctl(i32 noundef 1, i64 noundef 21523, ptr noundef nonnull %w) #18
  %cmp.not = icmp eq i32 %call, -1
  %ws_col = getelementptr inbounds nuw i8, ptr %w, i64 2
  %0 = load i16, ptr %ws_col, align 2
  %conv = zext i16 %0 to i32
  %width.0 = select i1 %cmp.not, i32 0, i32 %conv
  %cmp1 = icmp eq i32 %width.0, 0
  %spec.store.select = select i1 %cmp1, i32 80, i32 %width.0
  ret i32 %spec.store.select
}